target datalayout = "e-m:e-p270:32:32-p271:32:32-p272:64:64-i64:64-i128:128-f80:128-n8:16:32:64-S128"
target triple = "x86_64-pc-linux-gnu"

%struct.cmsysProcess_s = type { ptr, i32, [3 x i32], [3 x i32], i32, [1024 x i8], ptr, i32, double, ptr, i32, i32, i32, i32, i32, %struct.kwsysProcessTime_s, %struct.kwsysProcessTime_s, i32, i32, %struct.fd_set, i32, i32, i32, [1025 x i8], ptr, ptr, ptr, ptr, ptr, i32, i32, i32, [2 x i32], [2 x i32], [2 x i32], i32, ptr }
%struct.kwsysProcessTime_s = type { i64, i64 }
%struct.fd_set = type { [16 x i64] }

; Function Attrs: nounwind uwtable
define dso_local void @cmsysProcess_SetOption(ptr noundef %0, i32 noundef %1, i32 noundef %2) #0 {
  %4 = alloca ptr, align 8
  %5 = alloca i32, align 4
  %6 = alloca i32, align 4
  store ptr %0, ptr %4, align 8, !tbaa !4
  store i32 %1, ptr %5, align 4, !tbaa !20
  store i32 %2, ptr %6, align 4, !tbaa !20
  %7 = load ptr, ptr %4, align 8, !tbaa !4
  %8 = icmp ne ptr %7, null
  br i1 %8, label %10, label %9

9:                                                ; preds = %3
  br label %29

10:                                               ; preds = %3
  %11 = load i32, ptr %5, align 4, !tbaa !20
  switch i32 %11, label %28 [
    i32 1, label %12
    i32 2, label %16
    i32 3, label %20
    i32 4, label %24
  ]

12:                                               ; preds = %10
  %13 = load i32, ptr %6, align 4, !tbaa !20
  %14 = load ptr, ptr %4, align 8, !tbaa !4
  %15 = getelementptr inbounds nuw %struct.cmsysProcess_s, ptr %14, i32 0, i32 10
  store i32 %13, ptr %15, align 8, !tbaa !59
  br label %29

16:                                               ; preds = %10
  %17 = load i32, ptr %6, align 4, !tbaa !20
  %18 = load ptr, ptr %4, align 8, !tbaa !4
  %19 = getelementptr inbounds nuw %struct.cmsysProcess_s, ptr %18, i32 0, i32 13
  store i32 %17, ptr %19, align 4, !tbaa !60
  br label %29

20:                                               ; preds = %10
  %21 = load i32, ptr %6, align 4, !tbaa !20
  %22 = load ptr, ptr %4, align 8, !tbaa !4
  %23 = getelementptr inbounds nuw %struct.cmsysProcess_s, ptr %22, i32 0, i32 12
  store i32 %21, ptr %23, align 8, !tbaa !48
  br label %29

24:                                               ; preds = %10
  %25 = load i32, ptr %6, align 4, !tbaa !20
  %26 = load ptr, ptr %4, align 8, !tbaa !4
  %27 = getelementptr inbounds nuw %struct.cmsysProcess_s, ptr %26, i32 0, i32 14
  store volatile i32 %25, ptr %27, align 8, !tbaa !61
  br label %29

28:                                               ; preds = %10
  br label %29

29:                                               ; preds = %9, %28, %24, %20, %16, %12
  ret void
}