; Function Attrs: nofree norecurse nounwind memory(argmem: readwrite, inaccessiblemem: readwrite) uwtable
define dso_local void @cmsysProcess_SetOption(ptr noundef %0, i32 noundef %1, i32 noundef %2) local_unnamed_addr #12 {
  %.not = icmp eq ptr %0, null
  br i1 %.not, label %13, label %4

4:                                                ; preds = %3
  switch i32 %1, label %13 [
    i32 1, label %5
    i32 2, label %7
    i32 3, label %9
    i32 4, label %11
  ]

5:                                                ; preds = %4
  %6 = getelementptr inbounds nuw i8, ptr %0, i64 1096
  store i32 %2, ptr %6, align 8, !tbaa !51
  br label %13

7:                                                ; preds = %4
  %8 = getelementptr inbounds nuw i8, ptr %0, i64 1108
  store i32 %2, ptr %8, align 4, !tbaa !52
  br label %13

9:                                                ; preds = %4
  %10 = getelementptr inbounds nuw i8, ptr %0, i64 1104
  store i32 %2, ptr %10, align 8, !tbaa !45
  br label %13

11:                                               ; preds = %4
  %12 = getelementptr inbounds nuw i8, ptr %0, i64 1112
  store volatile i32 %2, ptr %12, align 8, !tbaa !53
  br label %13

13:                                               ; preds = %4, %3, %11, %9, %7, %5
  ret void
}